; Function Attrs: nounwind uwtable
define dso_local zeroext i1 @Curl_host_is_ipnum(ptr noundef %0) local_unnamed_addr #0 {
  %2 = alloca %struct.in_addr, align 4
  %3 = alloca %struct.in6_addr, align 4
  %4 = call i32 @inet_pton(i32 noundef 2, ptr noundef %0, ptr noundef nonnull %2) #12
  %5 = icmp sgt i32 %4, 0
  br i1 %5, label %9, label %6

6:                                                ; preds = %1
  %7 = call i32 @inet_pton(i32 noundef 10, ptr noundef %0, ptr noundef nonnull %3) #12
  %8 = icmp sgt i32 %7, 0
  br label %9

9:                                                ; preds = %6, %1
  %.0 = phi i1 [ true, %1 ], [ %8, %6 ]
  ret i1 %.0
}